Certificate:
    Data:
        Version: 3 (0x2)
        Serial Number: 2 (0x2)
    Signature Algorithm: sha1WithRSAEncryption
        Issuer: C=US, ST=CA, L=SanFrancisco, O=DigitalOcean, OU=Community, CN=openvpn.example.com/name=server/emailAddress=sammy@example.com
        Validity
            Not Before: Aug 19 14:04:48 2018 GMT
            Not After : Aug 16 14:04:48 2028 GMT
        Subject: C=US, ST=CA, L=SanFrancisco, O=DigitalOcean, OU=Community, CN=client/name=server/emailAddress=sammy@example.com
        Subject Public Key Info:
            Public Key Algorithm: rsaEncryption
                Public-Key: (4096 bit)
                Modulus:
                    00:c5:ff:aa:6e:8d:ce:42:f3:6e:e5:b3:da:c2:16:
                    88:36:df:9e:68:d8:93:41:8a:00:0b:29:cc:94:1b:
                    0c:f1:9b:a1:4d:94:81:9a:be:92:cb:3d:b5:d0:18:
                    72:50:da:9d:73:bc:12:96:1f:df:48:f9:4a:b6:52:
                    53:e0:c2:bd:34:77:89:b7:ab:69:39:96:ec:51:16:
                    61:3b:fd:27:2d:4c:a3:28:14:0f:60:6c:9a:3c:d3:
                    ce:5d:d0:04:ba:5e:68:b0:79:f0:fc:87:72:45:1c:
                    44:a5:4d:b3:b7:25:c7:9b:f1:b1:62:38:f5:ca:3c:
                    9d:38:6a:91:ca:39:77:33:30:30:8b:d8:7a:5b:bc:
                    a8:08:4a:6d:44:74:e0:44:5b:d0:52:b2:29:9d:63:
                    54:c9:12:cf:a4:4a:b7:d3:65:9e:dd:38:76:d9:10:
                    7a:e7:3d:6b:f8:6d:aa:fa:59:5c:4e:0f:d5:77:05:
                    c8:c1:8c:20:eb:38:8e:78:2c:fa:11:63:b7:da:29:
                    a3:e8:e0:1e:33:90:ba:75:5f:9f:15:cc:5f:19:0f:
                    3f:0e:af:6d:ce:2a:a0:b5:3d:6c:ba:5d:aa:d6:ab:
                    05:3a:42:e6:bf:9c:52:c2:9f:38:2b:28:6a:09:9f:
                    8c:a8:eb:35:f0:b5:2b:4f:f6:81:c0:d9:fd:8f:a9:
                    e7:0b:86:d2:a7:1c:a8:0b:22:c1:f6:29:c1:32:56:
                    17:ff:e9:c0:0a:7b:ca:ac:5f:55:cc:79:46:ea:be:
                    ca:fb:bf:68:ba:dd:e3:cd:e5:f6:3c:45:73:38:29:
                    75:6e:d2:28:4f:00:f3:4f:55:fc:82:c8:10:3e:e9:
                    46:95:90:62:ef:91:74:73:87:8e:ed:c0:7a:a0:2c:
                    5e:9a:35:a0:bb:e6:0a:a0:61:a3:21:aa:80:6c:34:
                    67:c7:33:14:b5:23:12:ce:56:0b:2d:2e:b2:72:86:
                    11:1d:76:f3:4b:30:20:dd:94:82:32:84:44:d1:43:
                    a7:29:5f:18:9c:98:c9:c7:48:73:55:9d:10:97:eb:
                    59:3a:d4:14:6b:09:14:fe:84:c7:9c:5f:a7:38:61:
                    45:6e:fe:c6:83:cc:b0:c2:f9:60:da:0a:8c:f4:5f:
                    50:56:d1:d0:1c:66:cd:01:90:00:33:12:2a:ec:85:
                    d6:38:b5:83:0e:3b:61:6e:fa:9a:9a:e6:8d:62:67:
                    ce:2c:cb:73:3b:19:b2:32:50:f4:f9:9e:ee:e2:51:
                    9e:ab:d3:61:72:23:a4:14:6b:43:cb:aa:9e:d1:fe:
                    34:9e:ab:9a:88:c5:ae:c5:42:af:75:73:01:a0:43:
                    47:f2:ae:4d:9f:66:b6:17:8e:92:1e:ae:d4:7e:af:
                    ca:7a:71
                Exponent: 65537 (0x10001)
        X509v3 extensions:
            X509v3 Basic Constraints: 
                CA:FALSE
            Netscape Comment: 
                Easy-RSA Generated Certificate
            X509v3 Subject Key Identifier: 
                1B:6A:A1:BA:25:BC:CF:92:84:F5:8F:28:A7:98:F3:DC:F8:1B:C9:79
            X509v3 Authority Key Identifier: 
                keyid:19:A9:9A:39:B7:5E:40:05:C3:EE:24:DA:11:67:C4:ED:B9:C6:D1:AA
                DirName:/C=US/ST=CA/L=SanFrancisco/O=DigitalOcean/OU=Community/CN=openvpn.example.com/name=server/emailAddress=sammy@example.com
                serial:A0:F0:25:5C:BC:F3:A9:2E

            X509v3 Extended Key Usage: 
                TLS Web Client Authentication
            X509v3 Key Usage: 
                Digital Signature
    Signature Algorithm: sha1WithRSAEncryption
         b5:0f:4f:a2:19:02:43:1f:b4:90:e9:67:d1:8d:50:36:6e:2e:
         97:07:8a:f5:70:26:fa:a2:f1:a7:ce:39:8a:38:80:59:dd:9f:
         39:c8:e3:4a:04:cd:b0:55:17:6d:c6:ec:c4:4a:89:08:37:65:
         1f:4f:72:47:75:94:a1:35:01:99:1f:42:67:f8:d7:37:f3:7e:
         01:6b:28:98:80:77:c7:1c:a5:97:24:e9:a9:ed:74:13:ed:bf:
         2a:89:e4:d7:ef:a2:a2:8f:bc:23:d1:18:6a:15:5e:d0:63:9e:
         36:61:21:e6:d2:9b:8c:6d:6b:cb:7e:12:06:41:e4:41:0e:3e:
         84:ed:45:cb:64:86:9e:6c:73:50:9f:50:30:c0:a6:c4:c8:fc:
         f1:c9:9d:b9:3e:4e:74:78:ef:a8:fb:8b:98:0f:af:fe:76:16:
         c8:76:d1:24:47:1a:4e:92:07:ea:eb:e3:aa:9c:d5:e3:d8:b4:
         d7:68:de:5b:17:6d:03:35:06:d4:7b:f6:c8:47:c8:3b:3b:bb:
         e3:b2:f5:c8:0f:0c:19:35:b3:5d:d5:eb:2c:e2:29:8f:71:87:
         67:7a:e2:34:70:86:9c:cb:6e:20:a7:4c:46:d6:0a:b1:22:d0:
         83:5a:4a:ba:35:bf:29:7d:8d:87:e4:e3:25:5d:58:b7:8d:2f:
         cf:50:76:7e:07:ff:29:e0:c3:52:ea:14:07:c2:6b:7e:71:f6:
         b6:95:5c:f6:10:8c:d1:71:69:82:bc:98:e8:3d:5e:e6:fa:b2:
         ae:d1:98:ac:cd:4a:bd:79:73:a7:2d:07:92:07:aa:0d:46:16:
         df:76:e7:61:aa:63:60:fe:c9:9f:0b:d5:c0:ec:78:b9:08:10:
         b3:35:fb:f6:52:df:19:7d:33:e2:e8:59:32:c4:fc:a3:dc:26:
         fa:2a:93:63:b4:f4:f3:4b:1c:ab:bb:e9:fa:d0:3e:59:92:4d:
         43:21:5f:72:b2:c1:34:23:88:7c:01:95:d4:af:52:c9:db:cd:
         d1:a9:78:ab:1e:de:3d:b2:28:6d:74:49:53:60:c8:72:9a:0e:
         2d:a8:3a:95:32:6b:fe:61:43:17:fa:2d:b6:80:1a:00:69:9a:
         bb:0b:ca:85:6d:fc:0b:b9:79:45:a5:36:1f:6f:bf:5e:2a:15:
         11:bd:de:f3:4c:62:55:19:26:35:4e:06:66:f6:9e:c4:fd:c6:
         ea:0d:2b:b6:ba:8b:c1:66:91:57:da:71:c5:f2:8f:ac:19:d9:
         45:7d:c4:f3:34:da:97:f7:b0:20:f5:d9:70:25:49:cf:b9:5d:
         41:5e:c8:f3:e0:de:64:74:b4:b0:fc:84:b1:94:26:13:2d:17:
         a3:c4:42:88:71:03:57:0b
-----BEGIN CERTIFICATE-----
MIIHMDCCBRigAwIBAgIBAjANBgkqhkiG9w0BAQUFADCBrTELMAkGA1UEBhMCVVMx
CzAJBgNVBAgTAkNBMRUwEwYDVQQHEwxTYW5GcmFuY2lzY28xFTATBgNVBAoTDERp
Z2l0YWxPY2VhbjESMBAGA1UECxMJQ29tbXVuaXR5MRwwGgYDVQQDExNvcGVudnBu
LmV4YW1wbGUuY29tMQ8wDQYDVQQpEwZzZXJ2ZXIxIDAeBgkqhkiG9w0BCQEWEXNh
bW15QGV4YW1wbGUuY29tMB4XDTE4MDgxOTE0MDQ0OFoXDTI4MDgxNjE0MDQ0OFow
gaAxCzAJBgNVBAYTAlVTMQswCQYDVQQIEwJDQTEVMBMGA1UEBxMMU2FuRnJhbmNp
c2NvMRUwEwYDVQQKEwxEaWdpdGFsT2NlYW4xEjAQBgNVBAsTCUNvbW11bml0eTEP
MA0GA1UEAxMGY2xpZW50MQ8wDQYDVQQpEwZzZXJ2ZXIxIDAeBgkqhkiG9w0BCQEW
EXNhbW15QGV4YW1wbGUuY29tMIICIjANBgkqhkiG9w0BAQEFAAOCAg8AMIICCgKC
AgEAxf+qbo3OQvNu5bPawhaINt+eaNiTQYoACynMlBsM8ZuhTZSBmr6Syz210Bhy
UNqdc7wSlh/fSPlKtlJT4MK9NHeJt6tpOZbsURZhO/0nLUyjKBQPYGyaPNPOXdAE
ul5osHnw/IdyRRxEpU2ztyXHm/GxYjj1yjydOGqRyjl3MzAwi9h6W7yoCEptRHTg
RFvQUrIpnWNUyRLPpEq302We3Th22RB65z1r+G2q+llcTg/VdwXIwYwg6ziOeCz6
EWO32imj6OAeM5C6dV+fFcxfGQ8/Dq9tziqgtT1sul2q1qsFOkLmv5xSwp84Kyhq
CZ+MqOs18LUrT/aBwNn9j6nnC4bSpxyoCyLB9inBMlYX/+nACnvKrF9VzHlG6r7K
+79out3jzeX2PEVzOCl1btIoTwDzT1X8gsgQPulGlZBi75F0c4eO7cB6oCxemjWg
u+YKoGGjIaqAbDRnxzMUtSMSzlYLLS6ycoYRHXbzSzAg3ZSCMoRE0UOnKV8YnJjJ
x0hzVZ0Ql+tZOtQUawkU/oTHnF+nOGFFbv7Gg8ywwvlg2gqM9F9QVtHQHGbNAZAA
MxIq7IXWOLWDDjthbvqamuaNYmfOLMtzOxmyMlD0+Z7u4lGeq9NhciOkFGtDy6qe
0f40nquaiMWuxUKvdXMBoENH8q5Nn2a2F46SHq7Ufq/KenECAwEAAaOCAWQwggFg
MAkGA1UdEwQCMAAwLQYJYIZIAYb4QgENBCAWHkVhc3ktUlNBIEdlbmVyYXRlZCBD
ZXJ0aWZpY2F0ZTAdBgNVHQ4EFgQUG2qhuiW8z5KE9Y8op5jz3PgbyXkwgeIGA1Ud
IwSB2jCB14AUGamaObdeQAXD7iTaEWfE7bnG0aqhgbOkgbAwga0xCzAJBgNVBAYT
AlVTMQswCQYDVQQIEwJDQTEVMBMGA1UEBxMMU2FuRnJhbmNpc2NvMRUwEwYDVQQK
EwxEaWdpdGFsT2NlYW4xEjAQBgNVBAsTCUNvbW11bml0eTEcMBoGA1UEAxMTb3Bl
bnZwbi5leGFtcGxlLmNvbTEPMA0GA1UEKRMGc2VydmVyMSAwHgYJKoZIhvcNAQkB
FhFzYW1teUBleGFtcGxlLmNvbYIJAKDwJVy886kuMBMGA1UdJQQMMAoGCCsGAQUF
BwMCMAsGA1UdDwQEAwIHgDANBgkqhkiG9w0BAQUFAAOCAgEAtQ9PohkCQx+0kOln
0Y1QNm4ulweK9XAm+qLxp845ijiAWd2fOcjjSgTNsFUXbcbsxEqJCDdlH09yR3WU
oTUBmR9CZ/jXN/N+AWsomIB3xxyllyTpqe10E+2/Konk1++ioo+8I9EYahVe0GOe
NmEh5tKbjG1ry34SBkHkQQ4+hO1Fy2SGnmxzUJ9QMMCmxMj88cmduT5OdHjvqPuL
mA+v/nYWyHbRJEcaTpIH6uvjqpzV49i012jeWxdtAzUG1Hv2yEfIOzu747L1yA8M
GTWzXdXrLOIpj3GHZ3riNHCGnMtuIKdMRtYKsSLQg1pKujW/KX2Nh+TjJV1Yt40v
z1B2fgf/KeDDUuoUB8JrfnH2tpVc9hCM0XFpgryY6D1e5vqyrtGYrM1KvXlzpy0H
kgeqDUYW33bnYapjYP7JnwvVwOx4uQgQszX79lLfGX0z4uhZMsT8o9wm+iqTY7T0
80scq7vp+tA+WZJNQyFfcrLBNCOIfAGV1K9SydvN0al4qx7ePbIobXRJU2DIcpoO
Lag6lTJr/mFDF/ottoAaAGmauwvKhW38C7l5RaU2H2+/XioVEb3e80xiVRkmNU4G
ZvaexP3G6g0rtrqLwWaRV9pxxfKPrBnZRX3E8zTal/ewIPXZcCVJz7ldQV7I8+De
ZHS0sPyEsZQmEy0Xo8RCiHEDVws=
-----END CERTIFICATE-----
